; Function Attrs: mustprogress nofree norecurse nosync nounwind willreturn memory(read, inaccessiblemem: none) uwtable
define dso_local noundef nonnull align 16 dereferenceable(32) ptr @_ZNK16b3GpuNarrowPhase17getLocalSpaceAabbEi(ptr noundef nonnull readonly align 8 captures(none) dereferenceable(56) %0, i32 noundef %1) local_unnamed_addr #13 align 2 {
  %3 = getelementptr inbounds nuw i8, ptr %0, i64 8
  %4 = load ptr, ptr %3, align 8, !tbaa !7
  %5 = getelementptr inbounds nuw i8, ptr %4, i64 424
  %6 = load ptr, ptr %5, align 8, !tbaa !134
  %7 = getelementptr inbounds nuw i8, ptr %6, i64 16
  %8 = load ptr, ptr %7, align 8, !tbaa !131
  %9 = sext i32 %1 to i64
  %10 = getelementptr inbounds %struct.b3SapAabb, ptr %8, i64 %9
  ret ptr %10
}